; Function Attrs: nounwind uwtable
define internal void @fn_child_exit_fl(ptr noundef %0, i32 noundef %1, i64 %2, i32 noundef %3, i32 noundef %4, i32 noundef %5, i64 noundef %6) #0 {
  %8 = alloca %struct.strbuf, align 8
  call void @llvm.lifetime.start.p0(i64 24, ptr nonnull %8) #7
  call void @llvm.memcpy.p0.p0.i64(ptr noundef nonnull align 8 dereferenceable(24) %8, ptr noundef nonnull align 8 dereferenceable(24) @__const.fn_counter.buf_payload, i64 24, i1 false)
  %9 = uitofp i64 %6 to double
  %10 = fdiv double %9, 1.000000e+06
  call void (ptr, ptr, ...) @strbuf_addf(ptr noundef nonnull %8, ptr noundef nonnull @.str.22, i32 noundef %3, i32 noundef %4, i32 noundef %5, double noundef %10) #7
  call fastcc void @normal_io_write_fl(ptr noundef %0, i32 noundef %1, ptr noundef %8)
  call void @strbuf_release(ptr noundef nonnull %8) #7
  call void @llvm.lifetime.end.p0(i64 24, ptr nonnull %8) #7
  ret void
}